; Function Attrs: nofree norecurse nosync nounwind memory(readwrite, inaccessiblemem: none) uwtable
define void @Abc_SclApplyUpdateToBest(ptr noundef readonly captures(none) %0, ptr noundef readonly captures(none) %1, ptr noundef captures(none) %2) local_unnamed_addr #3 {
  %4 = getelementptr i8, ptr %2, i64 4
  %.val2526 = load i32, ptr %4, align 4, !tbaa !28
  %5 = icmp sgt i32 %.val2526, 1
  br i1 %5, label %.lr.ph, label %.critedge

.lr.ph:                                           ; preds = %3
  %6 = getelementptr i8, ptr %2, i64 8
  %.val22 = load ptr, ptr %6, align 8, !tbaa !30
  %7 = getelementptr i8, ptr %0, i64 8
  %.val23 = load ptr, ptr %7, align 8, !tbaa !30
  br label %8

8:                                                ; preds = %.lr.ph, %8
  %indvars.iv = phi i64 [ 0, %.lr.ph ], [ %indvars.iv.next, %8 ]
  %9 = or disjoint i64 %indvars.iv, 1
  %10 = getelementptr inbounds nuw i32, ptr %.val22, i64 %indvars.iv
  %11 = load i32, ptr %10, align 4, !tbaa !31
  %12 = getelementptr inbounds nuw i32, ptr %.val22, i64 %9
  %13 = load i32, ptr %12, align 4, !tbaa !31
  %14 = sext i32 %11 to i64
  %15 = getelementptr inbounds i32, ptr %.val23, i64 %14
  store i32 %13, ptr %15, align 4, !tbaa !31
  %indvars.iv.next = add nuw nsw i64 %indvars.iv, 2
  %16 = or disjoint i64 %indvars.iv.next, 1
  %.val25 = load i32, ptr %4, align 4, !tbaa !28
  %17 = sext i32 %.val25 to i64
  %18 = icmp slt i64 %16, %17
  br i1 %18, label %8, label %.critedge, !llvm.loop !141

.critedge:                                        ; preds = %8, %3
  store i32 0, ptr %4, align 4, !tbaa !28
  ret void
}